; Function Attrs: mustprogress uwtable
define void @_ZN3g2o30SparseOptimizerTerminateAction20setOptimizerStopFlagEPKNS_15SparseOptimizerEb(ptr noundef nonnull align 8 dereferenceable(32) %0, ptr noundef %1, i1 noundef zeroext %2) local_unnamed_addr #5 align 2 {
  %4 = zext i1 %2 to i8
  %5 = getelementptr inbounds nuw i8, ptr %1, i64 288
  %6 = load ptr, ptr %5, align 8, !tbaa !19
  %.not = icmp eq ptr %6, null
  br i1 %.not, label %8, label %7

7:                                                ; preds = %3
  store i8 %4, ptr %6, align 1, !tbaa !81
  br label %10

8:                                                ; preds = %3
  %9 = getelementptr inbounds nuw i8, ptr %0, i64 24
  store i8 %4, ptr %9, align 8, !tbaa !14
  tail call void @_ZN3g2o15SparseOptimizer16setForceStopFlagEPb(ptr noundef nonnull align 8 dereferenceable(409) %1, ptr noundef nonnull %9)
  br label %10

10:                                               ; preds = %8, %7
  ret void
}